; Function Attrs: mustprogress ssp uwtable
define hidden void @_ZN6open3d13visualization4glsl12SimpleShader14UnbindGeometryEv(ptr noundef nonnull align 8 dereferenceable(92) %0) unnamed_addr #1 align 2 {
  %2 = getelementptr inbounds nuw i8, ptr %0, i64 33
  %3 = load i8, ptr %2, align 1, !tbaa !25, !range !26, !noundef !27
  %4 = trunc nuw i8 %3 to i1
  br i1 %4, label %5, label %10

5:                                                ; preds = %1
  %6 = load ptr, ptr @__glewDeleteBuffers, align 8, !tbaa !16
  %7 = getelementptr inbounds nuw i8, ptr %0, i64 76
  tail call void %6(i32 noundef 1, ptr noundef nonnull %7)
  %8 = load ptr, ptr @__glewDeleteBuffers, align 8, !tbaa !16
  %9 = getelementptr inbounds nuw i8, ptr %0, i64 84
  tail call void %8(i32 noundef 1, ptr noundef nonnull %9)
  store i8 0, ptr %2, align 1, !tbaa !25
  br label %10

10:                                               ; preds = %5, %1
  ret void
}